; Function Attrs: mustprogress nounwind uwtable
define internal fastcc void @_ZN12_GLOBAL__N_111StmtPrinter18VisitCXXDeleteExprEPN5clang13CXXDeleteExprE(ptr noundef nonnull align 8 dereferenceable(80) %0, ptr noundef readonly captures(none) %1) unnamed_addr #0 align 2 {
  %3 = load i32, ptr %1, align 8
  %4 = and i32 %3, 262144
  %.not = icmp eq i32 %4, 0
  br i1 %.not, label %_ZN4llvm11raw_ostreamlsEPKc.exit, label %5

5:                                                ; preds = %2
  %6 = load ptr, ptr %0, align 8
  %7 = getelementptr inbounds nuw i8, ptr %6, i64 24
  %8 = load ptr, ptr %7, align 8
  %9 = getelementptr inbounds nuw i8, ptr %6, i64 32
  %10 = load ptr, ptr %9, align 8
  %11 = ptrtoint ptr %8 to i64
  %12 = ptrtoint ptr %10 to i64
  %13 = sub i64 %11, %12
  %14 = icmp ult i64 %13, 2
  br i1 %14, label %15, label %17

15:                                               ; preds = %5
  %16 = tail call noundef nonnull align 8 dereferenceable(48) ptr @_ZN4llvm11raw_ostream5writeEPKcm(ptr noundef nonnull align 8 dereferenceable(48) %6, ptr noundef nonnull @.str.127, i64 noundef 2) #19
  br label %_ZN4llvm11raw_ostreamlsEPKc.exit

17:                                               ; preds = %5
  store i16 14906, ptr %10, align 1
  %18 = load ptr, ptr %9, align 8
  %19 = getelementptr inbounds nuw i8, ptr %18, i64 2
  store ptr %19, ptr %9, align 8
  br label %_ZN4llvm11raw_ostreamlsEPKc.exit

_ZN4llvm11raw_ostreamlsEPKc.exit:                 ; preds = %17, %15, %2
  %20 = load ptr, ptr %0, align 8
  %21 = getelementptr inbounds nuw i8, ptr %20, i64 24
  %22 = load ptr, ptr %21, align 8
  %23 = getelementptr inbounds nuw i8, ptr %20, i64 32
  %24 = load ptr, ptr %23, align 8
  %25 = ptrtoint ptr %22 to i64
  %26 = ptrtoint ptr %24 to i64
  %27 = sub i64 %25, %26
  %28 = icmp ult i64 %27, 7
  br i1 %28, label %29, label %31

29:                                               ; preds = %_ZN4llvm11raw_ostreamlsEPKc.exit
  %30 = tail call noundef nonnull align 8 dereferenceable(48) ptr @_ZN4llvm11raw_ostream5writeEPKcm(ptr noundef nonnull align 8 dereferenceable(48) %20, ptr noundef nonnull @.str.130, i64 noundef 7) #19
  br label %_ZN4llvm11raw_ostreamlsEPKc.exit6

31:                                               ; preds = %_ZN4llvm11raw_ostreamlsEPKc.exit
  tail call void @llvm.memcpy.p0.p0.i64(ptr noundef nonnull align 1 dereferenceable(7) %24, ptr noundef nonnull align 1 dereferenceable(7) @.str.130, i64 7, i1 false)
  %32 = load ptr, ptr %23, align 8
  %33 = getelementptr inbounds nuw i8, ptr %32, i64 7
  store ptr %33, ptr %23, align 8
  br label %_ZN4llvm11raw_ostreamlsEPKc.exit6

_ZN4llvm11raw_ostreamlsEPKc.exit6:                ; preds = %29, %31
  %34 = load i32, ptr %1, align 8
  %35 = and i32 %34, 524288
  %.not14 = icmp eq i32 %35, 0
  br i1 %.not14, label %_ZN4llvm11raw_ostreamlsEPKc.exit9, label %36

36:                                               ; preds = %_ZN4llvm11raw_ostreamlsEPKc.exit6
  %37 = load ptr, ptr %0, align 8
  %38 = getelementptr inbounds nuw i8, ptr %37, i64 24
  %39 = load ptr, ptr %38, align 8
  %40 = getelementptr inbounds nuw i8, ptr %37, i64 32
  %41 = load ptr, ptr %40, align 8
  %42 = ptrtoint ptr %39 to i64
  %43 = ptrtoint ptr %41 to i64
  %44 = sub i64 %42, %43
  %45 = icmp ult i64 %44, 3
  br i1 %45, label %46, label %48

46:                                               ; preds = %36
  %47 = tail call noundef nonnull align 8 dereferenceable(48) ptr @_ZN4llvm11raw_ostream5writeEPKcm(ptr noundef nonnull align 8 dereferenceable(48) %37, ptr noundef nonnull @.str.131, i64 noundef 3) #19
  br label %_ZN4llvm11raw_ostreamlsEPKc.exit9

48:                                               ; preds = %36
  tail call void @llvm.memcpy.p0.p0.i64(ptr noundef nonnull align 1 dereferenceable(3) %41, ptr noundef nonnull align 1 dereferenceable(3) @.str.131, i64 3, i1 false)
  %49 = load ptr, ptr %40, align 8
  %50 = getelementptr inbounds nuw i8, ptr %49, i64 3
  store ptr %50, ptr %40, align 8
  br label %_ZN4llvm11raw_ostreamlsEPKc.exit9

_ZN4llvm11raw_ostreamlsEPKc.exit9:                ; preds = %48, %46, %_ZN4llvm11raw_ostreamlsEPKc.exit6
  %51 = getelementptr inbounds nuw i8, ptr %1, i64 24
  %52 = load ptr, ptr %51, align 8
  %.not.i = icmp eq ptr %52, null
  br i1 %.not.i, label %63, label %53

53:                                               ; preds = %_ZN4llvm11raw_ostreamlsEPKc.exit9
  %54 = getelementptr inbounds nuw i8, ptr %0, i64 16
  %55 = load ptr, ptr %54, align 8
  %.not.i13 = icmp eq ptr %55, null
  br i1 %.not.i13, label %62, label %56

56:                                               ; preds = %53
  %57 = load ptr, ptr %0, align 8
  %58 = load ptr, ptr %55, align 8
  %59 = getelementptr inbounds nuw i8, ptr %58, i64 16
  %60 = load ptr, ptr %59, align 8
  %61 = tail call noundef zeroext i1 %60(ptr noundef nonnull align 8 dereferenceable(8) %55, ptr noundef nonnull %52, ptr noundef nonnull align 8 dereferenceable(48) %57) #19
  br i1 %61, label %_ZN12_GLOBAL__N_111StmtPrinter9PrintExprEPN5clang4ExprE.exit, label %62

62:                                               ; preds = %56, %53
  tail call fastcc void @_ZN5clang15StmtVisitorBaseISt11add_pointerN12_GLOBAL__N_111StmtPrinterEvJEE5VisitEPNS_4StmtE(ptr noundef nonnull align 8 dereferenceable(80) %0, ptr noundef nonnull %52)
  br label %_ZN12_GLOBAL__N_111StmtPrinter9PrintExprEPN5clang4ExprE.exit

63:                                               ; preds = %_ZN4llvm11raw_ostreamlsEPKc.exit9
  %64 = load ptr, ptr %0, align 8
  %65 = getelementptr inbounds nuw i8, ptr %64, i64 24
  %66 = load ptr, ptr %65, align 8
  %67 = getelementptr inbounds nuw i8, ptr %64, i64 32
  %68 = load ptr, ptr %67, align 8
  %69 = ptrtoint ptr %66 to i64
  %70 = ptrtoint ptr %68 to i64
  %71 = sub i64 %69, %70
  %72 = icmp ult i64 %71, 11
  br i1 %72, label %73, label %75

73:                                               ; preds = %63
  %74 = tail call noundef nonnull align 8 dereferenceable(48) ptr @_ZN4llvm11raw_ostream5writeEPKcm(ptr noundef nonnull align 8 dereferenceable(48) %64, ptr noundef nonnull @.str.4, i64 noundef 11) #19
  br label %_ZN12_GLOBAL__N_111StmtPrinter9PrintExprEPN5clang4ExprE.exit

75:                                               ; preds = %63
  tail call void @llvm.memcpy.p0.p0.i64(ptr noundef nonnull align 1 dereferenceable(11) %68, ptr noundef nonnull align 1 dereferenceable(11) @.str.4, i64 11, i1 false)
  %76 = load ptr, ptr %67, align 8
  %77 = getelementptr inbounds nuw i8, ptr %76, i64 11
  store ptr %77, ptr %67, align 8
  br label %_ZN12_GLOBAL__N_111StmtPrinter9PrintExprEPN5clang4ExprE.exit

_ZN12_GLOBAL__N_111StmtPrinter9PrintExprEPN5clang4ExprE.exit: ; preds = %75, %73, %62, %56
  ret void
}